; Function Attrs: mustprogress nounwind uwtable
define internal void @"_ZNK4$_409to_stringB5cxx11E6insn_t"(ptr dead_on_unwind noalias writable sret(%"class.std::__cxx11::basic_string") align 8 %0, ptr nocapture nonnull readnone align 8 %1, i64 %2) unnamed_addr #8 align 2 {
  %4 = lshr i64 %2, 2
  %5 = and i64 %4, 31
  %6 = lshr i64 %2, 7
  %7 = and i64 %6, 32
  %8 = or disjoint i64 %7, %5
  %9 = trunc i64 %8 to i32
  tail call void @_ZNSt7__cxx119to_stringEi(ptr dead_on_unwind writable sret(%"class.std::__cxx11::basic_string") align 8 %0, i32 noundef %9) #19
  ret void
}